; Function Attrs: nounwind uwtable
define range(i32 -40, 1) i32 @CVodeSetQuadSensErrCon(ptr noundef %0, i32 noundef %1) local_unnamed_addr #0 {
  %3 = icmp eq ptr %0, null
  br i1 %3, label %4, label %5

4:                                                ; preds = %2
  tail call void (ptr, i32, ptr, ptr, ptr, ...) @cvProcessError(ptr noundef null, i32 noundef -21, ptr noundef nonnull @.str, ptr noundef nonnull @.str.39, ptr noundef nonnull @.str.2) #6
  br label %17

5:                                                ; preds = %2
  %6 = getelementptr inbounds nuw i8, ptr %0, i64 1808
  %7 = load i32, ptr %6, align 8, !tbaa !53
  %8 = icmp eq i32 %7, 0
  br i1 %8, label %9, label %10

9:                                                ; preds = %5
  tail call void (ptr, i32, ptr, ptr, ptr, ...) @cvProcessError(ptr noundef nonnull %0, i32 noundef -40, ptr noundef nonnull @.str, ptr noundef nonnull @.str.40, ptr noundef nonnull @.str.36) #6
  br label %17

10:                                               ; preds = %5
  %11 = getelementptr inbounds nuw i8, ptr %0, i64 1820
  %12 = load i32, ptr %11, align 4, !tbaa !63
  %13 = icmp eq i32 %12, 0
  br i1 %13, label %14, label %15

14:                                               ; preds = %10
  tail call void (ptr, i32, ptr, ptr, ptr, ...) @cvProcessError(ptr noundef nonnull %0, i32 noundef -50, ptr noundef nonnull @.str, ptr noundef nonnull @.str.39, ptr noundef nonnull @.str.41) #6
  br label %17

15:                                               ; preds = %10
  %16 = getelementptr inbounds nuw i8, ptr %0, i64 284
  store i32 %1, ptr %16, align 4, !tbaa !64
  br label %17

17:                                               ; preds = %15, %14, %9, %4
  %.0 = phi i32 [ -21, %4 ], [ -40, %9 ], [ -30, %14 ], [ 0, %15 ]
  ret i32 %.0
}